; Function Attrs: mustprogress uwtable
define hidden void @_ZN4cvc58internal3smt5Model12setHeapModelENS0_12NodeTemplateILb1EEES4_(ptr noundef nonnull align 8 captures(none) dereferenceable(200) %this, ptr noundef readonly captures(none) %h, ptr noundef readonly captures(none) %nilEq) local_unnamed_addr #3 align 2 {
entry:
  %d_sepHeap = getelementptr inbounds nuw i8, ptr %this, i64 184
  %0 = load ptr, ptr %d_sepHeap, align 8
  %1 = load ptr, ptr %h, align 8
  %cmp.not.i = icmp eq ptr %0, %1
  br i1 %cmp.not.i, label %_ZN4cvc58internal12NodeTemplateILb1EEaSERKS2_.exit, label %if.then.i

if.then.i:                                        ; preds = %entry
  %bf.load.i.i = load i64, ptr %0, align 8
  %2 = and i64 %bf.load.i.i, 1152920405095219200
  %cmp.not.i.i = icmp eq i64 %2, 1152920405095219200
  br i1 %cmp.not.i.i, label %_ZN4cvc58internal4expr9NodeValue3decEv.exit.i, label %if.then.i.i

if.then.i.i:                                      ; preds = %if.then.i
  %bf.value.i.i = add i64 %bf.load.i.i, 1152920405095219200
  %bf.shl.i.i = and i64 %bf.value.i.i, 1152920405095219200
  %bf.clear7.i.i = and i64 %bf.load.i.i, -1152920405095219201
  %bf.set.i.i = or disjoint i64 %bf.shl.i.i, %bf.clear7.i.i
  store i64 %bf.set.i.i, ptr %0, align 8
  %cmp12.i.i = icmp eq i64 %bf.shl.i.i, 0
  br i1 %cmp12.i.i, label %if.then13.i.i, label %_ZN4cvc58internal4expr9NodeValue3decEv.exit.i

if.then13.i.i:                                    ; preds = %if.then.i.i
  tail call void @_ZN4cvc58internal4expr9NodeValue15markForDeletionEv(ptr noundef nonnull align 8 dereferenceable(16) %0)
  br label %_ZN4cvc58internal4expr9NodeValue3decEv.exit.i

_ZN4cvc58internal4expr9NodeValue3decEv.exit.i:    ; preds = %if.then13.i.i, %if.then.i.i, %if.then.i
  %3 = load ptr, ptr %h, align 8
  store ptr %3, ptr %d_sepHeap, align 8
  %bf.load.i2.i = load i64, ptr %3, align 8
  %bf.lshr.i.i = lshr i64 %bf.load.i2.i, 40
  %4 = trunc nuw nsw i64 %bf.lshr.i.i to i32
  %bf.cast.i.i = and i32 %4, 1048575
  %cmp.i.i = icmp samesign ult i32 %bf.cast.i.i, 1048574
  br i1 %cmp.i.i, label %if.then.i5.i, label %if.else.i.i

if.then.i5.i:                                     ; preds = %_ZN4cvc58internal4expr9NodeValue3decEv.exit.i
  %bf.value.i6.i = add i64 %bf.load.i2.i, 1099511627776
  %bf.shl.i7.i = and i64 %bf.value.i6.i, 1152920405095219200
  %bf.clear7.i8.i = and i64 %bf.load.i2.i, -1152920405095219201
  %bf.set.i9.i = or disjoint i64 %bf.shl.i7.i, %bf.clear7.i8.i
  store i64 %bf.set.i9.i, ptr %3, align 8
  br label %_ZN4cvc58internal12NodeTemplateILb1EEaSERKS2_.exit

if.else.i.i:                                      ; preds = %_ZN4cvc58internal4expr9NodeValue3decEv.exit.i
  %cmp12.i3.i = icmp eq i32 %bf.cast.i.i, 1048574
  br i1 %cmp12.i3.i, label %if.then13.i4.i, label %_ZN4cvc58internal12NodeTemplateILb1EEaSERKS2_.exit

if.then13.i4.i:                                   ; preds = %if.else.i.i
  %bf.set23.i.i = or i64 %bf.load.i2.i, 1152920405095219200
  store i64 %bf.set23.i.i, ptr %3, align 8
  tail call void @_ZN4cvc58internal4expr9NodeValue20markRefCountMaxedOutEv(ptr noundef nonnull align 8 dereferenceable(16) %3)
  br label %_ZN4cvc58internal12NodeTemplateILb1EEaSERKS2_.exit

_ZN4cvc58internal12NodeTemplateILb1EEaSERKS2_.exit: ; preds = %entry, %if.then.i5.i, %if.else.i.i, %if.then13.i4.i
  %d_sepNilEq = getelementptr inbounds nuw i8, ptr %this, i64 192
  %5 = load ptr, ptr %d_sepNilEq, align 8
  %6 = load ptr, ptr %nilEq, align 8
  %cmp.not.i1 = icmp eq ptr %5, %6
  br i1 %cmp.not.i1, label %_ZN4cvc58internal12NodeTemplateILb1EEaSERKS2_.exit26, label %if.then.i2

if.then.i2:                                       ; preds = %_ZN4cvc58internal12NodeTemplateILb1EEaSERKS2_.exit
  %bf.load.i.i3 = load i64, ptr %5, align 8
  %7 = and i64 %bf.load.i.i3, 1152920405095219200
  %cmp.not.i.i4 = icmp eq i64 %7, 1152920405095219200
  br i1 %cmp.not.i.i4, label %_ZN4cvc58internal4expr9NodeValue3decEv.exit.i11, label %if.then.i.i5

if.then.i.i5:                                     ; preds = %if.then.i2
  %bf.value.i.i6 = add i64 %bf.load.i.i3, 1152920405095219200
  %bf.shl.i.i7 = and i64 %bf.value.i.i6, 1152920405095219200
  %bf.clear7.i.i8 = and i64 %bf.load.i.i3, -1152920405095219201
  %bf.set.i.i9 = or disjoint i64 %bf.shl.i.i7, %bf.clear7.i.i8
  store i64 %bf.set.i.i9, ptr %5, align 8
  %cmp12.i.i10 = icmp eq i64 %bf.shl.i.i7, 0
  br i1 %cmp12.i.i10, label %if.then13.i.i25, label %_ZN4cvc58internal4expr9NodeValue3decEv.exit.i11

if.then13.i.i25:                                  ; preds = %if.then.i.i5
  tail call void @_ZN4cvc58internal4expr9NodeValue15markForDeletionEv(ptr noundef nonnull align 8 dereferenceable(16) %5)
  br label %_ZN4cvc58internal4expr9NodeValue3decEv.exit.i11

_ZN4cvc58internal4expr9NodeValue3decEv.exit.i11:  ; preds = %if.then13.i.i25, %if.then.i.i5, %if.then.i2
  %8 = load ptr, ptr %nilEq, align 8
  store ptr %8, ptr %d_sepNilEq, align 8
  %bf.load.i2.i12 = load i64, ptr %8, align 8
  %bf.lshr.i.i13 = lshr i64 %bf.load.i2.i12, 40
  %9 = trunc nuw nsw i64 %bf.lshr.i.i13 to i32
  %bf.cast.i.i14 = and i32 %9, 1048575
  %cmp.i.i15 = icmp samesign ult i32 %bf.cast.i.i14, 1048574
  br i1 %cmp.i.i15, label %if.then.i5.i20, label %if.else.i.i16

if.then.i5.i20:                                   ; preds = %_ZN4cvc58internal4expr9NodeValue3decEv.exit.i11
  %bf.value.i6.i21 = add i64 %bf.load.i2.i12, 1099511627776
  %bf.shl.i7.i22 = and i64 %bf.value.i6.i21, 1152920405095219200
  %bf.clear7.i8.i23 = and i64 %bf.load.i2.i12, -1152920405095219201
  %bf.set.i9.i24 = or disjoint i64 %bf.shl.i7.i22, %bf.clear7.i8.i23
  store i64 %bf.set.i9.i24, ptr %8, align 8
  br label %_ZN4cvc58internal12NodeTemplateILb1EEaSERKS2_.exit26

if.else.i.i16:                                    ; preds = %_ZN4cvc58internal4expr9NodeValue3decEv.exit.i11
  %cmp12.i3.i17 = icmp eq i32 %bf.cast.i.i14, 1048574
  br i1 %cmp12.i3.i17, label %if.then13.i4.i18, label %_ZN4cvc58internal12NodeTemplateILb1EEaSERKS2_.exit26

if.then13.i4.i18:                                 ; preds = %if.else.i.i16
  %bf.set23.i.i19 = or i64 %bf.load.i2.i12, 1152920405095219200
  store i64 %bf.set23.i.i19, ptr %8, align 8
  tail call void @_ZN4cvc58internal4expr9NodeValue20markRefCountMaxedOutEv(ptr noundef nonnull align 8 dereferenceable(16) %8)
  br label %_ZN4cvc58internal12NodeTemplateILb1EEaSERKS2_.exit26

_ZN4cvc58internal12NodeTemplateILb1EEaSERKS2_.exit26: ; preds = %_ZN4cvc58internal12NodeTemplateILb1EEaSERKS2_.exit, %if.then.i5.i20, %if.else.i.i16, %if.then13.i4.i18
  ret void
}